target datalayout = "e-m:e-p270:32:32-p271:32:32-p272:64:64-i64:64-i128:128-f80:128-n8:16:32:64-S128"
target triple = "x86_64-pc-linux-gnu"

%struct.ObjectAddress = type { i32, i32, i32 }
%struct.FormData_pg_attribute = type { i32, %struct.nameData, i32, i16, i16, i32, i16, i8, i8, i8, i8, i8, i8, i8, i8, i8, i8, i8, i16, i32 }
%struct.nameData = type { [64 x i8] }
%struct.RelationData = type { %struct.RelFileLocator, ptr, i32, i32, i8, i8, i8, i8, i8, i32, i32, i32, i32, ptr, ptr, i32, %struct.LockInfoData, ptr, ptr, ptr, ptr, ptr, i8, ptr, ptr, ptr, ptr, ptr, ptr, i32, ptr, i8, ptr, ptr, i32, i8, i32, ptr, i8, ptr, ptr, ptr, ptr, ptr, ptr, ptr, i32, ptr, ptr, ptr, ptr, ptr, ptr, ptr, ptr, ptr, ptr, ptr, ptr, ptr, ptr, ptr, ptr, ptr, ptr, ptr, i32, i8, ptr }
%struct.RelFileLocator = type { i32, i32, i32 }
%struct.LockInfoData = type { %struct.LockRelId }
%struct.LockRelId = type { i32, i32 }
%struct.FormData_pg_class = type { i32, %struct.nameData, i32, i32, i32, i32, i32, i32, i32, i32, float, i32, i32, i8, i8, i8, i8, i16, i16, i8, i8, i8, i8, i8, i8, i8, i8, i32, i32, i32 }
%struct.HeapTupleData = type { i32, %struct.ItemPointerData, i32, ptr }
%struct.ItemPointerData = type { %struct.BlockIdData, i16 }
%struct.BlockIdData = type { i16, i16 }
%struct.HeapTupleHeaderData = type { %union.anon, %struct.ItemPointerData, i16, i16, i8, [0 x i8] }
%union.anon = type { %struct.HeapTupleFields }
%struct.HeapTupleFields = type { i32, i32, %union.anon.0 }
%union.anon.0 = type { i32 }

@.str.2 = private unnamed_addr constant [12 x i8] c"tablecmds.c\00", align 1
@object_access_hook = external global ptr, align 8
@.str.218 = private unnamed_addr constant [44 x i8] c"column \22%s\22 of relation \22%s\22 does not exist\00", align 1
@.str.226 = private unnamed_addr constant [32 x i8] c"cannot alter system column \22%s\22\00", align 1
@__func__.ATExecSetOptions = private unnamed_addr constant [17 x i8] c"ATExecSetOptions\00", align 1

; Function Attrs: inlinehint nounwind uwtable
define internal ptr @GETSTRUCT(ptr noundef %0) #6 {
  %2 = alloca ptr, align 8
  store ptr %0, ptr %2, align 8
  %3 = load ptr, ptr %2, align 8
  %4 = getelementptr inbounds nuw %struct.HeapTupleData, ptr %3, i32 0, i32 3
  %5 = load ptr, ptr %4, align 8
  %6 = load ptr, ptr %2, align 8
  %7 = getelementptr inbounds nuw %struct.HeapTupleData, ptr %6, i32 0, i32 3
  %8 = load ptr, ptr %7, align 8
  %9 = getelementptr inbounds nuw %struct.HeapTupleHeaderData, ptr %8, i32 0, i32 4
  %10 = load i8, ptr %9, align 2
  %11 = zext i8 %10 to i32
  %12 = sext i32 %11 to i64
  %13 = getelementptr inbounds i8, ptr %5, i64 %12
  ret ptr %13
}

; Function Attrs: nounwind uwtable
define internal { i64, i32 } @ATExecSetOptions(ptr noundef %0, ptr noundef %1, ptr noundef %2, i1 noundef zeroext %3, i32 noundef %4) #0 {
  %6 = alloca %struct.ObjectAddress, align 4
  %7 = alloca ptr, align 8
  %8 = alloca ptr, align 8
  %9 = alloca ptr, align 8
  %10 = alloca i8, align 1
  %11 = alloca i32, align 4
  %12 = alloca ptr, align 8
  %13 = alloca ptr, align 8
  %14 = alloca ptr, align 8
  %15 = alloca ptr, align 8
  %16 = alloca i16, align 2
  %17 = alloca i64, align 8
  %18 = alloca i64, align 8
  %19 = alloca i8, align 1
  %20 = alloca [25 x i64], align 16
  %21 = alloca [25 x i8], align 16
  %22 = alloca [25 x i8], align 16
  %23 = alloca { i64, i32 }, align 8
  store ptr %0, ptr %7, align 8
  store ptr %1, ptr %8, align 8
  store ptr %2, ptr %9, align 8
  %24 = zext i1 %3 to i8
  store i8 %24, ptr %10, align 1
  store i32 %4, ptr %11, align 4
  call void @llvm.lifetime.start.p0(i64 8, ptr %12) #12
  call void @llvm.lifetime.start.p0(i64 8, ptr %13) #12
  call void @llvm.lifetime.start.p0(i64 8, ptr %14) #12
  call void @llvm.lifetime.start.p0(i64 8, ptr %15) #12
  call void @llvm.lifetime.start.p0(i64 2, ptr %16) #12
  call void @llvm.lifetime.start.p0(i64 8, ptr %17) #12
  call void @llvm.lifetime.start.p0(i64 8, ptr %18) #12
  call void @llvm.lifetime.start.p0(i64 1, ptr %19) #12
  call void @llvm.lifetime.start.p0(i64 200, ptr %20) #12
  call void @llvm.lifetime.start.p0(i64 25, ptr %21) #12
  call void @llvm.lifetime.start.p0(i64 25, ptr %22) #12
  %25 = call ptr @table_open(i32 noundef 1249, i32 noundef 3)
  store ptr %25, ptr %12, align 8
  %26 = load ptr, ptr %7, align 8
  %27 = getelementptr inbounds nuw %struct.RelationData, ptr %26, i32 0, i32 15
  %28 = load i32, ptr %27, align 8
  %29 = load ptr, ptr %8, align 8
  %30 = call ptr @SearchSysCacheAttName(i32 noundef %28, ptr noundef %29)
  store ptr %30, ptr %13, align 8
  %31 = load ptr, ptr %13, align 8
  %32 = icmp ne ptr %31, null
  br i1 %32, label %52, label %33

33:                                               ; preds = %5
  br label %34

34:                                               ; preds = %33
  br i1 true, label %35, label %37

35:                                               ; preds = %34
  %36 = call zeroext i1 @errstart_cold(i32 noundef 21, ptr noundef null) #13
  br i1 %36, label %39, label %49

37:                                               ; preds = %34
  %38 = call zeroext i1 @errstart(i32 noundef 21, ptr noundef null)
  br i1 %38, label %39, label %49

39:                                               ; preds = %37, %35
  %40 = call i32 @errcode(i32 noundef 50360452)
  %41 = load ptr, ptr %8, align 8
  %42 = load ptr, ptr %7, align 8
  %43 = getelementptr inbounds nuw %struct.RelationData, ptr %42, i32 0, i32 13
  %44 = load ptr, ptr %43, align 8
  %45 = getelementptr inbounds nuw %struct.FormData_pg_class, ptr %44, i32 0, i32 1
  %46 = getelementptr inbounds nuw %struct.nameData, ptr %45, i32 0, i32 0
  %47 = getelementptr inbounds [64 x i8], ptr %46, i64 0, i64 0
  %48 = call i32 (ptr, ...) @errmsg(ptr noundef @.str.218, ptr noundef %41, ptr noundef %47)
  call void @errfinish(ptr noundef @.str.2, i32 noundef 8905, ptr noundef @__func__.ATExecSetOptions)
  br label %49

49:                                               ; preds = %39, %37, %35
  unreachable

50:                                               ; No predecessors!
  br label %51

51:                                               ; preds = %50
  br label %52

52:                                               ; preds = %51, %5
  %53 = load ptr, ptr %13, align 8
  %54 = call ptr @GETSTRUCT(ptr noundef %53)
  store ptr %54, ptr %15, align 8
  %55 = load ptr, ptr %15, align 8
  %56 = getelementptr inbounds nuw %struct.FormData_pg_attribute, ptr %55, i32 0, i32 4
  %57 = load i16, ptr %56, align 2
  store i16 %57, ptr %16, align 2
  %58 = load i16, ptr %16, align 2
  %59 = sext i16 %58 to i32
  %60 = icmp sle i32 %59, 0
  br i1 %60, label %61, label %74

61:                                               ; preds = %52
  br label %62

62:                                               ; preds = %61
  br i1 true, label %63, label %65

63:                                               ; preds = %62
  %64 = call zeroext i1 @errstart_cold(i32 noundef 21, ptr noundef null) #13
  br i1 %64, label %67, label %71

65:                                               ; preds = %62
  %66 = call zeroext i1 @errstart(i32 noundef 21, ptr noundef null)
  br i1 %66, label %67, label %71

67:                                               ; preds = %65, %63
  %68 = call i32 @errcode(i32 noundef 1088)
  %69 = load ptr, ptr %8, align 8
  %70 = call i32 (ptr, ...) @errmsg(ptr noundef @.str.226, ptr noundef %69)
  call void @errfinish(ptr noundef @.str.2, i32 noundef 8913, ptr noundef @__func__.ATExecSetOptions)
  br label %71

71:                                               ; preds = %67, %65, %63
  unreachable

72:                                               ; No predecessors!
  br label %73

73:                                               ; preds = %72
  br label %74

74:                                               ; preds = %73, %52
  %75 = load ptr, ptr %13, align 8
  %76 = call i64 @SysCacheGetAttr(i32 noundef 6, ptr noundef %75, i16 noundef signext 23, ptr noundef %19)
  store i64 %76, ptr %17, align 8
  %77 = load i8, ptr %19, align 1, !range !6, !noundef !7
  %78 = trunc i8 %77 to i1
  br i1 %78, label %79, label %80

79:                                               ; preds = %74
  br label %82

80:                                               ; preds = %74
  %81 = load i64, ptr %17, align 8
  br label %82

82:                                               ; preds = %80, %79
  %83 = phi i64 [ 0, %79 ], [ %81, %80 ]
  %84 = load ptr, ptr %9, align 8
  %85 = load i8, ptr %10, align 1, !range !6, !noundef !7
  %86 = trunc i8 %85 to i1
  %87 = call i64 @transformRelOptions(i64 noundef %83, ptr noundef %84, ptr noundef null, ptr noundef null, i1 noundef zeroext false, i1 noundef zeroext %86)
  store i64 %87, ptr %18, align 8
  %88 = load i64, ptr %18, align 8
  %89 = call ptr @attribute_reloptions(i64 noundef %88, i1 noundef zeroext true)
  %90 = getelementptr inbounds [25 x i8], ptr %21, i64 0, i64 0
  call void @llvm.memset.p0.i64(ptr align 16 %90, i8 0, i64 25, i1 false)
  %91 = getelementptr inbounds [25 x i8], ptr %22, i64 0, i64 0
  call void @llvm.memset.p0.i64(ptr align 16 %91, i8 0, i64 25, i1 false)
  %92 = load i64, ptr %18, align 8
  %93 = icmp ne i64 %92, 0
  br i1 %93, label %94, label %97

94:                                               ; preds = %82
  %95 = load i64, ptr %18, align 8
  %96 = getelementptr inbounds [25 x i64], ptr %20, i64 0, i64 22
  store i64 %95, ptr %96, align 16
  br label %99

97:                                               ; preds = %82
  %98 = getelementptr inbounds [25 x i8], ptr %21, i64 0, i64 22
  store i8 1, ptr %98, align 2
  br label %99

99:                                               ; preds = %97, %94
  %100 = getelementptr inbounds [25 x i8], ptr %22, i64 0, i64 22
  store i8 1, ptr %100, align 2
  %101 = load ptr, ptr %13, align 8
  %102 = load ptr, ptr %12, align 8
  %103 = getelementptr inbounds nuw %struct.RelationData, ptr %102, i32 0, i32 14
  %104 = load ptr, ptr %103, align 8
  %105 = getelementptr inbounds [25 x i64], ptr %20, i64 0, i64 0
  %106 = getelementptr inbounds [25 x i8], ptr %21, i64 0, i64 0
  %107 = getelementptr inbounds [25 x i8], ptr %22, i64 0, i64 0
  %108 = call ptr @heap_modify_tuple(ptr noundef %101, ptr noundef %104, ptr noundef %105, ptr noundef %106, ptr noundef %107)
  store ptr %108, ptr %14, align 8
  %109 = load ptr, ptr %12, align 8
  %110 = load ptr, ptr %14, align 8
  %111 = getelementptr inbounds nuw %struct.HeapTupleData, ptr %110, i32 0, i32 1
  %112 = load ptr, ptr %14, align 8
  call void @CatalogTupleUpdate(ptr noundef %109, ptr noundef %111, ptr noundef %112)
  br label %113

113:                                              ; preds = %99
  %114 = load ptr, ptr @object_access_hook, align 8
  %115 = icmp ne ptr %114, null
  br i1 %115, label %116, label %124

116:                                              ; preds = %113
  %117 = load ptr, ptr %7, align 8
  %118 = getelementptr inbounds nuw %struct.RelationData, ptr %117, i32 0, i32 15
  %119 = load i32, ptr %118, align 8
  %120 = load ptr, ptr %15, align 8
  %121 = getelementptr inbounds nuw %struct.FormData_pg_attribute, ptr %120, i32 0, i32 4
  %122 = load i16, ptr %121, align 2
  %123 = sext i16 %122 to i32
  call void @RunObjectPostAlterHook(i32 noundef 1259, i32 noundef %119, i32 noundef %123, i32 noundef 0, i1 noundef zeroext false)
  br label %124

124:                                              ; preds = %116, %113
  br label %125

125:                                              ; preds = %124
  br label %126

126:                                              ; preds = %125
  br label %127

127:                                              ; preds = %126
  %128 = getelementptr inbounds nuw %struct.ObjectAddress, ptr %6, i32 0, i32 0
  store i32 1259, ptr %128, align 4
  %129 = load ptr, ptr %7, align 8
  %130 = getelementptr inbounds nuw %struct.RelationData, ptr %129, i32 0, i32 15
  %131 = load i32, ptr %130, align 8
  %132 = getelementptr inbounds nuw %struct.ObjectAddress, ptr %6, i32 0, i32 1
  store i32 %131, ptr %132, align 4
  %133 = load i16, ptr %16, align 2
  %134 = sext i16 %133 to i32
  %135 = getelementptr inbounds nuw %struct.ObjectAddress, ptr %6, i32 0, i32 2
  store i32 %134, ptr %135, align 4
  br label %136

136:                                              ; preds = %127
  br label %137

137:                                              ; preds = %136
  %138 = load ptr, ptr %14, align 8
  call void @heap_freetuple(ptr noundef %138)
  %139 = load ptr, ptr %13, align 8
  call void @ReleaseSysCache(ptr noundef %139)
  %140 = load ptr, ptr %12, align 8
  call void @table_close(ptr noundef %140, i32 noundef 3)
  call void @llvm.lifetime.end.p0(i64 25, ptr %22) #12
  call void @llvm.lifetime.end.p0(i64 25, ptr %21) #12
  call void @llvm.lifetime.end.p0(i64 200, ptr %20) #12
  call void @llvm.lifetime.end.p0(i64 1, ptr %19) #12
  call void @llvm.lifetime.end.p0(i64 8, ptr %18) #12
  call void @llvm.lifetime.end.p0(i64 8, ptr %17) #12
  call void @llvm.lifetime.end.p0(i64 2, ptr %16) #12
  call void @llvm.lifetime.end.p0(i64 8, ptr %15) #12
  call void @llvm.lifetime.end.p0(i64 8, ptr %14) #12
  call void @llvm.lifetime.end.p0(i64 8, ptr %13) #12
  call void @llvm.lifetime.end.p0(i64 8, ptr %12) #12
  call void @llvm.memcpy.p0.p0.i64(ptr align 8 %23, ptr align 4 %6, i64 12, i1 false)
  %141 = load { i64, i32 }, ptr %23, align 8
  ret { i64, i32 } %141
}