; Function Attrs: nounwind uwtable
define internal fastcc { i64, i32 } @ATExecSetOptions(ptr noundef readonly captures(none) %0, ptr noundef %1, ptr noundef %2, i1 noundef zeroext %3) unnamed_addr #0 {
  %5 = alloca i8, align 1
  %6 = alloca [25 x i64], align 16
  %7 = alloca [25 x i8], align 16
  %8 = alloca [25 x i8], align 16
  call void @llvm.lifetime.start.p0(i64 1, ptr nonnull %5) #15
  call void @llvm.lifetime.start.p0(i64 200, ptr nonnull %6) #15
  call void @llvm.lifetime.start.p0(i64 25, ptr nonnull %7) #15
  call void @llvm.lifetime.start.p0(i64 25, ptr nonnull %8) #15
  %9 = tail call ptr @table_open(i32 noundef 1249, i32 noundef 3) #15
  %10 = getelementptr inbounds nuw i8, ptr %0, i64 72
  %11 = load i32, ptr %10, align 8
  %12 = tail call ptr @SearchSysCacheAttName(i32 noundef %11, ptr noundef %1) #15
  %.not = icmp eq ptr %12, null
  br i1 %.not, label %13, label %20

13:                                               ; preds = %4
  %14 = tail call zeroext i1 @errstart_cold(i32 noundef 21, ptr noundef null) #16
  tail call void @llvm.assume(i1 %14)
  %15 = tail call i32 @errcode(i32 noundef 50360452) #15
  %16 = getelementptr inbounds nuw i8, ptr %0, i64 56
  %17 = load ptr, ptr %16, align 8
  %18 = getelementptr inbounds nuw i8, ptr %17, i64 4
  %19 = tail call i32 (ptr, ...) @errmsg(ptr noundef nonnull @.str.218, ptr noundef %1, ptr noundef nonnull %18) #15
  tail call void @errfinish(ptr noundef nonnull @.str.2, i32 noundef 8905, ptr noundef nonnull @__func__.ATExecSetOptions) #15
  unreachable

20:                                               ; preds = %4
  %21 = getelementptr i8, ptr %12, i64 16
  %.val = load ptr, ptr %21, align 8
  %22 = getelementptr inbounds nuw i8, ptr %.val, i64 22
  %23 = load i8, ptr %22, align 2
  %24 = zext i8 %23 to i64
  %25 = getelementptr inbounds nuw i8, ptr %.val, i64 %24
  %26 = getelementptr inbounds nuw i8, ptr %25, i64 74
  %27 = load i16, ptr %26, align 2
  %28 = icmp slt i16 %27, 1
  br i1 %28, label %29, label %33

29:                                               ; preds = %20
  %30 = tail call zeroext i1 @errstart_cold(i32 noundef 21, ptr noundef null) #16
  tail call void @llvm.assume(i1 %30)
  %31 = tail call i32 @errcode(i32 noundef 1088) #15
  %32 = tail call i32 (ptr, ...) @errmsg(ptr noundef nonnull @.str.226, ptr noundef %1) #15
  tail call void @errfinish(ptr noundef nonnull @.str.2, i32 noundef 8913, ptr noundef nonnull @__func__.ATExecSetOptions) #15
  unreachable

33:                                               ; preds = %20
  %34 = call i64 @SysCacheGetAttr(i32 noundef 6, ptr noundef nonnull %12, i16 noundef signext 23, ptr noundef nonnull %5) #15
  %35 = load i8, ptr %5, align 1, !range !6, !noundef !7
  %36 = trunc nuw i8 %35 to i1
  %37 = select i1 %36, i64 0, i64 %34
  %38 = call i64 @transformRelOptions(i64 noundef %37, ptr noundef %2, ptr noundef null, ptr noundef null, i1 noundef zeroext false, i1 noundef zeroext %3) #15
  %39 = call ptr @attribute_reloptions(i64 noundef %38, i1 noundef zeroext true) #15
  call void @llvm.memset.p0.i64(ptr noundef nonnull align 16 dereferenceable(25) %7, i8 0, i64 25, i1 false)
  call void @llvm.memset.p0.i64(ptr noundef nonnull align 16 dereferenceable(25) %8, i8 0, i64 25, i1 false)
  %.not31 = icmp eq i64 %38, 0
  br i1 %.not31, label %42, label %40

40:                                               ; preds = %33
  %41 = getelementptr inbounds nuw i8, ptr %6, i64 176
  store i64 %38, ptr %41, align 16
  br label %44

42:                                               ; preds = %33
  %43 = getelementptr inbounds nuw i8, ptr %7, i64 22
  store i8 1, ptr %43, align 2
  br label %44

44:                                               ; preds = %42, %40
  %45 = getelementptr inbounds nuw i8, ptr %8, i64 22
  store i8 1, ptr %45, align 2
  %46 = getelementptr inbounds nuw i8, ptr %9, i64 64
  %47 = load ptr, ptr %46, align 8
  %48 = call ptr @heap_modify_tuple(ptr noundef nonnull %12, ptr noundef %47, ptr noundef nonnull %6, ptr noundef nonnull %7, ptr noundef nonnull %8) #15
  %49 = getelementptr inbounds nuw i8, ptr %48, i64 4
  call void @CatalogTupleUpdate(ptr noundef %9, ptr noundef nonnull %49, ptr noundef %48) #15
  %50 = load ptr, ptr @object_access_hook, align 8
  %.not32 = icmp eq ptr %50, null
  br i1 %.not32, label %55, label %51

51:                                               ; preds = %44
  %52 = load i32, ptr %10, align 8
  %53 = load i16, ptr %26, align 2
  %54 = sext i16 %53 to i32
  call void @RunObjectPostAlterHook(i32 noundef 1259, i32 noundef %52, i32 noundef %54, i32 noundef 0, i1 noundef zeroext false) #15
  br label %55

55:                                               ; preds = %44, %51
  %56 = zext nneg i16 %27 to i32
  %57 = load i32, ptr %10, align 8
  call void @heap_freetuple(ptr noundef nonnull %48) #15
  call void @ReleaseSysCache(ptr noundef nonnull %12) #15
  call void @table_close(ptr noundef nonnull %9, i32 noundef 3) #15
  call void @llvm.lifetime.end.p0(i64 25, ptr nonnull %8) #15
  call void @llvm.lifetime.end.p0(i64 25, ptr nonnull %7) #15
  call void @llvm.lifetime.end.p0(i64 200, ptr nonnull %6) #15
  call void @llvm.lifetime.end.p0(i64 1, ptr nonnull %5) #15
  %.sroa.228.0.insert.ext = zext i32 %57 to i64
  %.sroa.228.0.insert.shift = shl nuw i64 %.sroa.228.0.insert.ext, 32
  %.sroa.027.0.insert.insert = or disjoint i64 %.sroa.228.0.insert.shift, 1259
  %.fca.0.insert = insertvalue { i64, i32 } poison, i64 %.sroa.027.0.insert.insert, 0
  %.fca.1.insert = insertvalue { i64, i32 } %.fca.0.insert, i32 %56, 1
  ret { i64, i32 } %.fca.1.insert
}